; Function Attrs: mustprogress nounwind uwtable
define noundef ptr @_ZN7glslang13TIntermediate9addSymbolERKNS_9TVariableERKNS_10TSourceLocE(ptr nocapture noundef nonnull readnone align 8 dereferenceable(2024) %0, ptr noundef nonnull align 8 dereferenceable(236) %1, ptr noundef nonnull align 8 dereferenceable(24) %2) local_unnamed_addr #0 align 2 {
  %4 = load ptr, ptr %1, align 8
  %5 = getelementptr inbounds i8, ptr %4, i64 120
  %6 = load ptr, ptr %5, align 8
  %7 = tail call noundef i64 %6(ptr noundef nonnull align 8 dereferenceable(33) %1) #17
  %8 = load ptr, ptr %1, align 8
  %9 = getelementptr inbounds i8, ptr %8, i64 24
  %10 = load ptr, ptr %9, align 8
  %11 = tail call noundef nonnull align 8 dereferenceable(40) ptr %10(ptr noundef nonnull align 8 dereferenceable(33) %1) #17
  %12 = load ptr, ptr %1, align 8
  %13 = getelementptr inbounds i8, ptr %12, i64 96
  %14 = load ptr, ptr %13, align 8
  %15 = tail call noundef nonnull align 8 dereferenceable(152) ptr %14(ptr noundef nonnull align 8 dereferenceable(236) %1) #17
  %16 = load ptr, ptr %1, align 8
  %17 = getelementptr inbounds i8, ptr %16, i64 184
  %18 = load ptr, ptr %17, align 8
  %19 = tail call noundef nonnull align 8 dereferenceable(16) ptr %18(ptr noundef nonnull align 8 dereferenceable(236) %1) #17
  %20 = load ptr, ptr %1, align 8
  %21 = getelementptr inbounds i8, ptr %20, i64 216
  %22 = load ptr, ptr %21, align 8
  %23 = tail call noundef ptr %22(ptr noundef nonnull align 8 dereferenceable(236) %1) #17
  %24 = tail call noundef nonnull align 8 dereferenceable(96) ptr @_ZN7glslang22GetThreadPoolAllocatorEv() #17
  %25 = tail call noundef ptr @_ZN7glslang14TPoolAllocator8allocateEm(ptr noundef nonnull align 8 dereferenceable(96) %24, i64 noundef 264) #17
  tail call void @_ZN7glslang13TIntermSymbolC2ExRKNSt7__cxx1112basic_stringIcSt11char_traitsIcENS_14pool_allocatorIcEEEERKNS_5TTypeE(ptr noundef nonnull align 8 dereferenceable(264) %25, i64 noundef %7, ptr noundef nonnull align 8 dereferenceable(40) %11, ptr noundef nonnull align 8 dereferenceable(152) %15)
  %26 = load ptr, ptr %25, align 8
  %27 = getelementptr inbounds i8, ptr %26, i64 8
  %28 = load ptr, ptr %27, align 8
  tail call void %28(ptr noundef nonnull align 8 dereferenceable(32) %25, ptr noundef nonnull align 8 dereferenceable(24) %2) #17
  %29 = getelementptr inbounds i8, ptr %19, i64 8
  %30 = load ptr, ptr %29, align 8
  %31 = getelementptr inbounds i8, ptr %25, i64 248
  store ptr %30, ptr %31, align 8
  %32 = getelementptr inbounds i8, ptr %25, i64 256
  store ptr %23, ptr %32, align 8
  ret ptr %25
}